target datalayout = "e-m:e-p270:32:32-p271:32:32-p272:64:64-i64:64-i128:128-f80:128-n8:16:32:64-S128"
target triple = "x86_64-pc-linux-gnu"

%"class.std::shared_ptr" = type { %"class.std::__shared_ptr" }
%"class.std::__shared_ptr" = type { ptr, %"class.std::__shared_count" }
%"class.std::__shared_count" = type { ptr }
%"class.tl::unexpected" = type { i32 }
%"class.tl::expected.131" = type { %"struct.tl::detail::expected_move_assign_base.base.144", [3 x i8] }
%"struct.tl::detail::expected_move_assign_base.base.144" = type { %"struct.tl::detail::expected_copy_assign_base.base.143" }
%"struct.tl::detail::expected_copy_assign_base.base.143" = type { %"struct.tl::detail::expected_move_base.base.142" }
%"struct.tl::detail::expected_move_base.base.142" = type { %"struct.tl::detail::expected_copy_base.base.141" }
%"struct.tl::detail::expected_copy_base.base.141" = type { %"struct.tl::detail::expected_operations_base.base.140" }
%"struct.tl::detail::expected_operations_base.base.140" = type { %"struct.tl::detail::expected_storage_base.base.139" }
%"struct.tl::detail::expected_storage_base.base.139" = type <{ %union.anon.138, i8 }>
%union.anon.138 = type { %"class.tl::unexpected" }
%"class.LIEF::logging::Logger" = type { %"class.std::shared_ptr" }
%"struct.tl::detail::expected_storage_base.137" = type <{ %union.anon.138, i8, [3 x i8] }>

@.str.125 = private unnamed_addr constant [43 x i8] c"Parsing regular dialogs is not implemented\00", align 1

; Function Attrs: mustprogress nounwind uwtable
define linkonce_odr hidden void @_ZN2tl10unexpectedI11lief_errorsEC2EOS1_(ptr noundef nonnull align 4 dereferenceable(4) %0, ptr noundef nonnull align 4 dereferenceable(4) %1) unnamed_addr #1 comdat align 2 {
  %3 = alloca ptr, align 8
  %4 = alloca ptr, align 8
  store ptr %0, ptr %3, align 8
  store ptr %1, ptr %4, align 8
  %5 = load ptr, ptr %3, align 8
  %6 = getelementptr inbounds %"class.tl::unexpected", ptr %5, i32 0, i32 0
  %7 = load ptr, ptr %4, align 8
  %8 = load i32, ptr %7, align 4
  store i32 %8, ptr %6, align 4
  ret void
}

; Function Attrs: mustprogress uwtable
define linkonce_odr hidden void @_ZN2tl6detail21expected_storage_baseIN4LIEF4ok_tE11lief_errorsLb1ELb1EEC2IJS4_ETnPNSt9enable_ifIXsr3std16is_constructibleIS4_DpOT_EE5valueEvE4typeELPv0EEENS_10unexpect_tESA_(ptr noundef nonnull align 4 dereferenceable(5) %0, ptr noundef nonnull align 4 dereferenceable(4) %1) unnamed_addr #3 comdat align 2 {
  %3 = alloca ptr, align 8
  %4 = alloca ptr, align 8
  store ptr %0, ptr %3, align 8
  store ptr %1, ptr %4, align 8
  %5 = load ptr, ptr %3, align 8
  %6 = getelementptr inbounds %"struct.tl::detail::expected_storage_base.137", ptr %5, i32 0, i32 0
  %7 = load ptr, ptr %4, align 8
  call void @_ZN2tl10unexpectedI11lief_errorsEC2EOS1_(ptr noundef nonnull align 4 dereferenceable(4) %6, ptr noundef nonnull align 4 dereferenceable(4) %7)
  %8 = getelementptr inbounds %"struct.tl::detail::expected_storage_base.137", ptr %5, i32 0, i32 1
  store i8 0, ptr %8, align 4
  ret void
}

; Function Attrs: mustprogress uwtable
define linkonce_odr hidden void @_ZN2tl6detail24expected_operations_baseIN4LIEF4ok_tE11lief_errorsECI2NS0_21expected_storage_baseIS3_S4_Lb1ELb1EEEIJS4_ETnPNSt9enable_ifIXsr3std16is_constructibleIS4_DpOT_EE5valueEvE4typeELPv0EEENS_10unexpect_tESA_(ptr noundef nonnull align 4 dereferenceable(5) %0, ptr noundef nonnull align 4 dereferenceable(4) %1) unnamed_addr #3 comdat align 2 {
  %3 = alloca ptr, align 8
  %4 = alloca ptr, align 8
  store ptr %0, ptr %3, align 8
  store ptr %1, ptr %4, align 8
  %5 = load ptr, ptr %3, align 8
  %6 = load ptr, ptr %4, align 8
  call void @_ZN2tl6detail21expected_storage_baseIN4LIEF4ok_tE11lief_errorsLb1ELb1EEC2IJS4_ETnPNSt9enable_ifIXsr3std16is_constructibleIS4_DpOT_EE5valueEvE4typeELPv0EEENS_10unexpect_tESA_(ptr noundef nonnull align 4 dereferenceable(5) %5, ptr noundef nonnull align 4 dereferenceable(4) %6)
  ret void
}

; Function Attrs: mustprogress uwtable
define linkonce_odr hidden void @_ZN2tl6detail18expected_copy_baseIN4LIEF4ok_tE11lief_errorsLb1EECI2NS0_21expected_storage_baseIS3_S4_Lb1ELb1EEEIJS4_ETnPNSt9enable_ifIXsr3std16is_constructibleIS4_DpOT_EE5valueEvE4typeELPv0EEENS_10unexpect_tESA_(ptr noundef nonnull align 4 dereferenceable(5) %0, ptr noundef nonnull align 4 dereferenceable(4) %1) unnamed_addr #3 comdat align 2 {
  %3 = alloca ptr, align 8
  %4 = alloca ptr, align 8
  store ptr %0, ptr %3, align 8
  store ptr %1, ptr %4, align 8
  %5 = load ptr, ptr %3, align 8
  %6 = load ptr, ptr %4, align 8
  call void @_ZN2tl6detail24expected_operations_baseIN4LIEF4ok_tE11lief_errorsECI2NS0_21expected_storage_baseIS3_S4_Lb1ELb1EEEIJS4_ETnPNSt9enable_ifIXsr3std16is_constructibleIS4_DpOT_EE5valueEvE4typeELPv0EEENS_10unexpect_tESA_(ptr noundef nonnull align 4 dereferenceable(5) %5, ptr noundef nonnull align 4 dereferenceable(4) %6)
  ret void
}

; Function Attrs: mustprogress uwtable
define linkonce_odr hidden void @_ZN2tl6detail18expected_move_baseIN4LIEF4ok_tE11lief_errorsLb1EECI2NS0_21expected_storage_baseIS3_S4_Lb1ELb1EEEIJS4_ETnPNSt9enable_ifIXsr3std16is_constructibleIS4_DpOT_EE5valueEvE4typeELPv0EEENS_10unexpect_tESA_(ptr noundef nonnull align 4 dereferenceable(5) %0, ptr noundef nonnull align 4 dereferenceable(4) %1) unnamed_addr #3 comdat align 2 {
  %3 = alloca ptr, align 8
  %4 = alloca ptr, align 8
  store ptr %0, ptr %3, align 8
  store ptr %1, ptr %4, align 8
  %5 = load ptr, ptr %3, align 8
  %6 = load ptr, ptr %4, align 8
  call void @_ZN2tl6detail18expected_copy_baseIN4LIEF4ok_tE11lief_errorsLb1EECI2NS0_21expected_storage_baseIS3_S4_Lb1ELb1EEEIJS4_ETnPNSt9enable_ifIXsr3std16is_constructibleIS4_DpOT_EE5valueEvE4typeELPv0EEENS_10unexpect_tESA_(ptr noundef nonnull align 4 dereferenceable(5) %5, ptr noundef nonnull align 4 dereferenceable(4) %6)
  ret void
}

; Function Attrs: mustprogress nounwind uwtable
define linkonce_odr hidden noundef ptr @_ZNKSt12__shared_ptrIN6spdlog6loggerELN9__gnu_cxx12_Lock_policyE2EE3getEv(ptr noundef nonnull align 8 dereferenceable(16) %0) #1 comdat align 2 {
  %2 = alloca ptr, align 8
  store ptr %0, ptr %2, align 8
  %3 = load ptr, ptr %2, align 8
  %4 = getelementptr inbounds %"class.std::__shared_ptr", ptr %3, i32 0, i32 0
  %5 = load ptr, ptr %4, align 8
  ret ptr %5
}

; Function Attrs: mustprogress uwtable
define linkonce_odr hidden void @_ZN2tl6detail25expected_copy_assign_baseIN4LIEF4ok_tE11lief_errorsLb1EECI2NS0_21expected_storage_baseIS3_S4_Lb1ELb1EEEIJS4_ETnPNSt9enable_ifIXsr3std16is_constructibleIS4_DpOT_EE5valueEvE4typeELPv0EEENS_10unexpect_tESA_(ptr noundef nonnull align 4 dereferenceable(5) %0, ptr noundef nonnull align 4 dereferenceable(4) %1) unnamed_addr #3 comdat align 2 {
  %3 = alloca ptr, align 8
  %4 = alloca ptr, align 8
  store ptr %0, ptr %3, align 8
  store ptr %1, ptr %4, align 8
  %5 = load ptr, ptr %3, align 8
  %6 = load ptr, ptr %4, align 8
  call void @_ZN2tl6detail18expected_move_baseIN4LIEF4ok_tE11lief_errorsLb1EECI2NS0_21expected_storage_baseIS3_S4_Lb1ELb1EEEIJS4_ETnPNSt9enable_ifIXsr3std16is_constructibleIS4_DpOT_EE5valueEvE4typeELPv0EEENS_10unexpect_tESA_(ptr noundef nonnull align 4 dereferenceable(5) %5, ptr noundef nonnull align 4 dereferenceable(4) %6)
  ret void
}

; Function Attrs: mustprogress nounwind uwtable
define linkonce_odr hidden void @_ZN2tl10unexpectedI11lief_errorsEC2IJRS1_ETnPNSt9enable_ifIXsr3std16is_constructibleIS1_DpOT_EE5valueEvE4typeELPv0EEES8_(ptr noundef nonnull align 4 dereferenceable(4) %0, ptr noundef nonnull align 4 dereferenceable(4) %1) unnamed_addr #1 comdat align 2 {
  %3 = alloca ptr, align 8
  %4 = alloca ptr, align 8
  store ptr %0, ptr %3, align 8
  store ptr %1, ptr %4, align 8
  %5 = load ptr, ptr %3, align 8
  %6 = getelementptr inbounds %"class.tl::unexpected", ptr %5, i32 0, i32 0
  %7 = load ptr, ptr %4, align 8
  %8 = load i32, ptr %7, align 4
  store i32 %8, ptr %6, align 4
  ret void
}

; Function Attrs: mustprogress nounwind uwtable
define linkonce_odr hidden noundef ptr @_ZNKSt19__shared_ptr_accessIN6spdlog6loggerELN9__gnu_cxx12_Lock_policyE2ELb0ELb0EE6_M_getEv(ptr noundef nonnull align 1 dereferenceable(1) %0) #1 comdat align 2 {
  %2 = alloca ptr, align 8
  store ptr %0, ptr %2, align 8
  %3 = load ptr, ptr %2, align 8
  %4 = call noundef ptr @_ZNKSt12__shared_ptrIN6spdlog6loggerELN9__gnu_cxx12_Lock_policyE2EE3getEv(ptr noundef nonnull align 8 dereferenceable(16) %3) #15
  ret ptr %4
}

; Function Attrs: noreturn nounwind uwtable
define linkonce_odr hidden void @__clang_call_terminate(ptr noundef %0) #6 comdat {
  %2 = call ptr @__cxa_begin_catch(ptr %0) #15
  call void @_ZSt9terminatev() #18
  unreachable
}

; Function Attrs: mustprogress nounwind uwtable
define linkonce_odr hidden void @_ZN2tl6detail26expected_default_ctor_baseIN4LIEF4ok_tE11lief_errorsLb1EEC2ENS0_23default_constructor_tagE(ptr noundef nonnull align 1 dereferenceable(1) %0) unnamed_addr #1 comdat align 2 {
  %2 = alloca ptr, align 8
  store ptr %0, ptr %2, align 8
  ret void
}

; Function Attrs: mustprogress uwtable
define linkonce_odr hidden void @_ZN2tl6detail25expected_move_assign_baseIN4LIEF4ok_tE11lief_errorsLb1EECI2NS0_21expected_storage_baseIS3_S4_Lb1ELb1EEEIJS4_ETnPNSt9enable_ifIXsr3std16is_constructibleIS4_DpOT_EE5valueEvE4typeELPv0EEENS_10unexpect_tESA_(ptr noundef nonnull align 4 dereferenceable(5) %0, ptr noundef nonnull align 4 dereferenceable(4) %1) unnamed_addr #3 comdat align 2 {
  %3 = alloca ptr, align 8
  %4 = alloca ptr, align 8
  store ptr %0, ptr %3, align 8
  store ptr %1, ptr %4, align 8
  %5 = load ptr, ptr %3, align 8
  %6 = load ptr, ptr %4, align 8
  call void @_ZN2tl6detail25expected_copy_assign_baseIN4LIEF4ok_tE11lief_errorsLb1EECI2NS0_21expected_storage_baseIS3_S4_Lb1ELb1EEEIJS4_ETnPNSt9enable_ifIXsr3std16is_constructibleIS4_DpOT_EE5valueEvE4typeELPv0EEENS_10unexpect_tESA_(ptr noundef nonnull align 4 dereferenceable(5) %5, ptr noundef nonnull align 4 dereferenceable(4) %6)
  ret void
}

; Function Attrs: mustprogress nounwind uwtable
define linkonce_odr hidden noundef nonnull align 4 dereferenceable(4) ptr @_ZNR2tl10unexpectedI11lief_errorsE5valueEv(ptr noundef nonnull align 4 dereferenceable(4) %0) #1 comdat align 2 {
  %2 = alloca ptr, align 8
  store ptr %0, ptr %2, align 8
  %3 = load ptr, ptr %2, align 8
  %4 = getelementptr inbounds %"class.tl::unexpected", ptr %3, i32 0, i32 0
  ret ptr %4
}

; Function Attrs: mustprogress uwtable
define linkonce_odr hidden i32 @_ZN2tl15make_unexpectedIR11lief_errorsEENS_10unexpectedINSt5decayIT_E4typeEEEOS5_(ptr noundef nonnull align 4 dereferenceable(4) %0) #3 comdat {
  %2 = alloca %"class.tl::unexpected", align 4
  %3 = alloca ptr, align 8
  store ptr %0, ptr %3, align 8
  %4 = load ptr, ptr %3, align 8
  call void @_ZN2tl10unexpectedI11lief_errorsEC2IJRS1_ETnPNSt9enable_ifIXsr3std16is_constructibleIS1_DpOT_EE5valueEvE4typeELPv0EEES8_(ptr noundef nonnull align 4 dereferenceable(4) %2, ptr noundef nonnull align 4 dereferenceable(4) %4)
  %5 = getelementptr inbounds %"class.tl::unexpected", ptr %2, i32 0, i32 0
  %6 = load i32, ptr %5, align 4
  ret i32 %6
}

; Function Attrs: mustprogress uwtable
define linkonce_odr hidden void @_ZN6spdlog6logger4infoIPKcEEvRKT_(ptr noundef nonnull align 8 dereferenceable(208) %0, ptr noundef nonnull align 8 dereferenceable(8) %1) #3 comdat align 2 {
  %3 = alloca ptr, align 8
  %4 = alloca ptr, align 8
  store ptr %0, ptr %3, align 8
  store ptr %1, ptr %4, align 8
  %5 = load ptr, ptr %3, align 8
  %6 = load ptr, ptr %4, align 8
  call void @_ZN6spdlog6logger3logIPKcEEvNS_5level10level_enumERKT_(ptr noundef nonnull align 8 dereferenceable(208) %5, i32 noundef 2, ptr noundef nonnull align 8 dereferenceable(8) %6)
  ret void
}

; Function Attrs: mustprogress nounwind uwtable
define linkonce_odr hidden noundef ptr @_ZNKSt19__shared_ptr_accessIN6spdlog6loggerELN9__gnu_cxx12_Lock_policyE2ELb0ELb0EEptEv(ptr noundef nonnull align 1 dereferenceable(1) %0) #1 comdat align 2 {
  %2 = alloca ptr, align 8
  store ptr %0, ptr %2, align 8
  %3 = load ptr, ptr %2, align 8
  %4 = call noundef ptr @_ZNKSt19__shared_ptr_accessIN6spdlog6loggerELN9__gnu_cxx12_Lock_policyE2ELb0ELb0EE6_M_getEv(ptr noundef nonnull align 1 dereferenceable(1) %3) #15
  ret ptr %4
}

; Function Attrs: mustprogress nounwind uwtable
define linkonce_odr hidden void @_ZN2tl8expectedIN4LIEF4ok_tE11lief_errorsEC2IS3_TnPNSt9enable_ifIXsr3std16is_constructibleIS3_OT_EE5valueEvE4typeELPv0ETnPNS6_IXsr3std14is_convertibleIS8_S3_EE5valueEvE4typeELSC_0EEEONS_10unexpectedIS7_EE(ptr noundef nonnull align 4 dereferenceable(5) %0, ptr noundef nonnull align 4 dereferenceable(4) %1) unnamed_addr #1 comdat align 2 personality ptr @__gxx_personality_v0 {
  %3 = alloca ptr, align 8
  %4 = alloca ptr, align 8
  store ptr %0, ptr %3, align 8
  store ptr %1, ptr %4, align 8
  %5 = load ptr, ptr %3, align 8
  %6 = load ptr, ptr %4, align 8
  %7 = call noundef nonnull align 4 dereferenceable(4) ptr @_ZNR2tl10unexpectedI11lief_errorsE5valueEv(ptr noundef nonnull align 4 dereferenceable(4) %6)
  invoke void @_ZN2tl6detail25expected_move_assign_baseIN4LIEF4ok_tE11lief_errorsLb1EECI2NS0_21expected_storage_baseIS3_S4_Lb1ELb1EEEIJS4_ETnPNSt9enable_ifIXsr3std16is_constructibleIS4_DpOT_EE5valueEvE4typeELPv0EEENS_10unexpect_tESA_(ptr noundef nonnull align 4 dereferenceable(5) %5, ptr noundef nonnull align 4 dereferenceable(4) %7)
          to label %8 unwind label %10

8:                                                ; preds = %2
  invoke void @_ZN2tl6detail26expected_default_ctor_baseIN4LIEF4ok_tE11lief_errorsLb1EEC2ENS0_23default_constructor_tagE(ptr noundef nonnull align 1 dereferenceable(1) %5)
          to label %9 unwind label %10

9:                                                ; preds = %8
  ret void

10:                                               ; preds = %8, %2
  %11 = landingpad { ptr, i32 }
          catch ptr null
  %12 = extractvalue { ptr, i32 } %11, 0
  call void @__clang_call_terminate(ptr %12) #18
  unreachable
}

; Function Attrs: mustprogress uwtable
define linkonce_odr hidden i32 @_Z15make_error_code11lief_errors(i32 noundef %0) #3 comdat {
  %2 = alloca %"class.tl::unexpected", align 4
  %3 = alloca i32, align 4
  store i32 %0, ptr %3, align 4
  %4 = call i32 @_ZN2tl15make_unexpectedIR11lief_errorsEENS_10unexpectedINSt5decayIT_E4typeEEEOS5_(ptr noundef nonnull align 4 dereferenceable(4) %3)
  %5 = getelementptr inbounds %"class.tl::unexpected", ptr %2, i32 0, i32 0
  store i32 %4, ptr %5, align 4
  %6 = getelementptr inbounds %"class.tl::unexpected", ptr %2, i32 0, i32 0
  %7 = load i32, ptr %6, align 4
  ret i32 %7
}

; Function Attrs: mustprogress uwtable
define linkonce_odr hidden void @_ZN4LIEF7logging6Logger4infoIJEEEvPKcDpRKT_(ptr noundef %0) #3 comdat align 2 {
  %2 = alloca ptr, align 8
  store ptr %0, ptr %2, align 8
  %3 = call noundef nonnull align 8 dereferenceable(16) ptr @_ZN4LIEF7logging6Logger8instanceEv()
  %4 = getelementptr inbounds %"class.LIEF::logging::Logger", ptr %3, i32 0, i32 0
  %5 = call noundef ptr @_ZNKSt19__shared_ptr_accessIN6spdlog6loggerELN9__gnu_cxx12_Lock_policyE2ELb0ELb0EEptEv(ptr noundef nonnull align 1 dereferenceable(1) %4) #15
  call void @_ZN6spdlog6logger4infoIPKcEEvRKT_(ptr noundef nonnull align 8 dereferenceable(208) %5, ptr noundef nonnull align 8 dereferenceable(8) %2)
  ret void
}

; Function Attrs: mustprogress uwtable
define hidden i64 @_ZN4LIEF2PE15ResourcesParser21parse_regular_dialogsERSt6vectorINS0_14ResourceDialogESaIS3_EERKNS0_12ResourceDataERNS_12BinaryStreamE(ptr noundef nonnull align 8 dereferenceable(24) %0, ptr noundef nonnull align 8 dereferenceable(116) %1, ptr noundef nonnull align 8 dereferenceable(24) %2) #3 align 2 {
  %4 = alloca %"class.tl::expected.131", align 4
  %5 = alloca ptr, align 8
  %6 = alloca ptr, align 8
  %7 = alloca ptr, align 8
  %8 = alloca %"class.tl::unexpected", align 4
  store ptr %0, ptr %5, align 8
  store ptr %1, ptr %6, align 8
  store ptr %2, ptr %7, align 8
  call void @_ZN4LIEF7logging6Logger4infoIJEEEvPKcDpRKT_(ptr noundef @.str.125)
  %9 = call i32 @_Z15make_error_code11lief_errors(i32 noundef 3)
  %10 = getelementptr inbounds %"class.tl::unexpected", ptr %8, i32 0, i32 0
  store i32 %9, ptr %10, align 4
  call void @_ZN2tl8expectedIN4LIEF4ok_tE11lief_errorsEC2IS3_TnPNSt9enable_ifIXsr3std16is_constructibleIS3_OT_EE5valueEvE4typeELPv0ETnPNS6_IXsr3std14is_convertibleIS8_S3_EE5valueEvE4typeELSC_0EEEONS_10unexpectedIS7_EE(ptr noundef nonnull align 4 dereferenceable(5) %4, ptr noundef nonnull align 4 dereferenceable(4) %8) #15
  %11 = load i64, ptr %4, align 4
  ret i64 %11
}