; Function Attrs: mustprogress uwtable
define hidden noundef i64 @_ZN4LIEF2PE15ResourcesParser21parse_regular_dialogsERSt6vectorINS0_14ResourceDialogESaIS3_EERKNS0_12ResourceDataERNS_12BinaryStreamE(ptr nocapture noundef nonnull readnone align 8 dereferenceable(24) %0, ptr nocapture noundef nonnull readnone align 8 dereferenceable(116) %1, ptr nocapture noundef nonnull readnone align 8 dereferenceable(24) %2) local_unnamed_addr #3 align 2 personality ptr @__gxx_personality_v0 {
  %4 = alloca ptr, align 8
  call void @llvm.lifetime.start.p0(i64 8, ptr nonnull %4)
  store ptr @.str.125, ptr %4, align 8
  %5 = tail call noundef nonnull align 8 dereferenceable(16) ptr @_ZN4LIEF7logging6Logger8instanceEv()
  %6 = load ptr, ptr %5, align 8
  call void @_ZN6spdlog6logger3logIPKcEEvNS_5level10level_enumERKT_(ptr noundef nonnull align 8 dereferenceable(208) %6, i32 noundef 2, ptr noundef nonnull align 8 dereferenceable(8) %4)
  call void @llvm.lifetime.end.p0(i64 8, ptr nonnull %4)
  ret i64 3
}